; Function Attrs: nofree null_pointer_is_valid sspstrong uwtable
define internal void @format_meter_unsigned(ptr noundef %0, i32 noundef %1) #2 {
  %3 = uitofp i32 %1 to double
  %4 = fmul double %3, 1.562500e-02
  %5 = tail call double @log10(double noundef %4) #8
  %6 = fdiv double %5, 3.000000e+00
  %7 = tail call double @llvm.floor.f64(double %6)
  %8 = fptosi double %7 to i32
  %9 = mul i32 %8, 3
  switch i32 %9, label %get_engr_prefix.exit [
    i32 -15, label %.sink.split.i
    i32 -12, label %10
    i32 -9, label %11
    i32 -6, label %12
    i32 -3, label %13
    i32 3, label %14
    i32 6, label %15
    i32 9, label %16
    i32 12, label %17
  ]

10:                                               ; preds = %2
  br label %.sink.split.i

11:                                               ; preds = %2
  br label %.sink.split.i

12:                                               ; preds = %2
  br label %.sink.split.i

13:                                               ; preds = %2
  br label %.sink.split.i

14:                                               ; preds = %2
  br label %.sink.split.i

15:                                               ; preds = %2
  br label %.sink.split.i

16:                                               ; preds = %2
  br label %.sink.split.i

17:                                               ; preds = %2
  br label %.sink.split.i

.sink.split.i:                                    ; preds = %17, %16, %15, %14, %13, %12, %11, %10, %2
  %.sink12.i = phi double [ 0x3D719799812DEA11, %17 ], [ 1.000000e-09, %16 ], [ 0x3EB0C6F7A0B5ED8D, %15 ], [ 1.000000e-03, %14 ], [ 1.000000e+03, %13 ], [ 1.000000e+06, %12 ], [ 1.000000e+09, %11 ], [ 1.000000e+12, %10 ], [ 1.000000e+15, %2 ]
  %.0.ph.i = phi ptr [ @.str.476, %17 ], [ @.str.475, %16 ], [ @.str.474, %15 ], [ @.str.473, %14 ], [ @.str.472, %13 ], [ @.str.471, %12 ], [ @.str.470, %11 ], [ @.str.469, %10 ], [ @.str.468, %2 ]
  %18 = fmul double %4, %.sink12.i
  br label %get_engr_prefix.exit

get_engr_prefix.exit:                             ; preds = %2, %.sink.split.i
  %.0 = phi double [ %4, %2 ], [ %18, %.sink.split.i ]
  %.0.i = phi ptr [ @.str.446, %2 ], [ %.0.ph.i, %.sink.split.i ]
  %19 = tail call i32 (ptr, i64, i32, i64, ptr, ...) @__snprintf_chk(ptr noundef %0, i64 noundef 240, i32 noundef 2, i64 noundef -1, ptr noundef nonnull @.str.509, double noundef %.0, ptr noundef nonnull %.0.i)
  ret void
}